target datalayout = "e-m:e-p270:32:32-p271:32:32-p272:64:64-i64:64-i128:128-f80:128-n8:16:32:64-S128"
target triple = "x86_64-pc-linux-gnu"

%union.Value = type { ptr }
%struct.Table = type { ptr, i8, i8, i8, i8, i32, ptr, ptr, ptr, ptr }
%struct.TValue = type { %union.Value, i8 }
%union.Node = type { %struct.NodeKey }
%struct.NodeKey = type { %union.Value, i8, i8, i32, %union.Value }
%union.Limbox = type { ptr }

@.str = private unnamed_addr constant [15 x i8] c"table overflow\00", align 1
@dummynode_ = internal constant { { %union.Value, i8, i8, [2 x i8], i32, %union.Value } } { { %union.Value, i8, i8, [2 x i8], i32, %union.Value } { %union.Value zeroinitializer, i8 16, i8 11, [2 x i8] zeroinitializer, i32 0, %union.Value zeroinitializer } }, align 8

; Function Attrs: nounwind uwtable
define internal void @setnodevector(ptr noundef %0, ptr noundef %1, i32 noundef %2) #0 {
  %4 = alloca ptr, align 8
  %5 = alloca ptr, align 8
  %6 = alloca i32, align 4
  %7 = alloca i32, align 4
  %8 = alloca i32, align 4
  %9 = alloca i64, align 8
  %10 = alloca ptr, align 8
  %11 = alloca ptr, align 8
  store ptr %0, ptr %4, align 8, !tbaa !4
  store ptr %1, ptr %5, align 8, !tbaa !9
  store i32 %2, ptr %6, align 4, !tbaa !19
  %12 = load i32, ptr %6, align 4, !tbaa !19
  %13 = icmp eq i32 %12, 0
  br i1 %13, label %14, label %25

14:                                               ; preds = %3
  %15 = load ptr, ptr %5, align 8, !tbaa !9
  %16 = getelementptr inbounds nuw %struct.Table, ptr %15, i32 0, i32 7
  store ptr @dummynode_, ptr %16, align 8, !tbaa !28
  %17 = load ptr, ptr %5, align 8, !tbaa !9
  %18 = getelementptr inbounds nuw %struct.Table, ptr %17, i32 0, i32 4
  store i8 0, ptr %18, align 1, !tbaa !27
  %19 = load ptr, ptr %5, align 8, !tbaa !9
  %20 = getelementptr inbounds nuw %struct.Table, ptr %19, i32 0, i32 3
  %21 = load i8, ptr %20, align 2, !tbaa !30
  %22 = zext i8 %21 to i32
  %23 = or i32 %22, 64
  %24 = trunc i32 %23 to i8
  store i8 %24, ptr %20, align 2, !tbaa !30
  br label %105

25:                                               ; preds = %3
  call void @llvm.lifetime.start.p0(i64 4, ptr %7) #8
  call void @llvm.lifetime.start.p0(i64 4, ptr %8) #8
  %26 = load i32, ptr %6, align 4, !tbaa !19
  %27 = call zeroext i8 @luaO_ceillog2(i32 noundef %26)
  %28 = zext i8 %27 to i32
  store i32 %28, ptr %8, align 4, !tbaa !19
  %29 = load i32, ptr %8, align 4, !tbaa !19
  %30 = icmp sgt i32 %29, 30
  br i1 %30, label %35, label %31

31:                                               ; preds = %25
  %32 = load i32, ptr %8, align 4, !tbaa !19
  %33 = shl i32 1, %32
  %34 = icmp sgt i32 %33, 1073741824
  br i1 %34, label %35, label %37

35:                                               ; preds = %31, %25
  %36 = load ptr, ptr %4, align 8, !tbaa !4
  call void (ptr, ptr, ...) @luaG_runerror(ptr noundef %36, ptr noundef @.str) #9
  unreachable

37:                                               ; preds = %31
  %38 = load i32, ptr %8, align 4, !tbaa !19
  %39 = shl i32 1, %38
  store i32 %39, ptr %6, align 4, !tbaa !19
  %40 = load i32, ptr %8, align 4, !tbaa !19
  %41 = icmp slt i32 %40, 3
  br i1 %41, label %42, label %50

42:                                               ; preds = %37
  %43 = load ptr, ptr %4, align 8, !tbaa !4
  %44 = load i32, ptr %6, align 4, !tbaa !19
  %45 = zext i32 %44 to i64
  %46 = mul i64 %45, 24
  %47 = call ptr @luaM_malloc_(ptr noundef %43, i64 noundef %46, i32 noundef 0)
  %48 = load ptr, ptr %5, align 8, !tbaa !9
  %49 = getelementptr inbounds nuw %struct.Table, ptr %48, i32 0, i32 7
  store ptr %47, ptr %49, align 8, !tbaa !28
  br label %73

50:                                               ; preds = %37
  call void @llvm.lifetime.start.p0(i64 8, ptr %9) #8
  %51 = load i32, ptr %6, align 4, !tbaa !19
  %52 = zext i32 %51 to i64
  %53 = mul i64 %52, 24
  %54 = add i64 %53, 8
  store i64 %54, ptr %9, align 8, !tbaa !32
  call void @llvm.lifetime.start.p0(i64 8, ptr %10) #8
  %55 = load ptr, ptr %4, align 8, !tbaa !4
  %56 = load i64, ptr %9, align 8, !tbaa !32
  %57 = mul i64 %56, 1
  %58 = call ptr @luaM_malloc_(ptr noundef %55, i64 noundef %57, i32 noundef 0)
  store ptr %58, ptr %10, align 8, !tbaa !34
  %59 = load ptr, ptr %10, align 8, !tbaa !34
  %60 = getelementptr inbounds nuw i8, ptr %59, i64 8
  %61 = load ptr, ptr %5, align 8, !tbaa !9
  %62 = getelementptr inbounds nuw %struct.Table, ptr %61, i32 0, i32 7
  store ptr %60, ptr %62, align 8, !tbaa !28
  %63 = load ptr, ptr %5, align 8, !tbaa !9
  %64 = getelementptr inbounds nuw %struct.Table, ptr %63, i32 0, i32 7
  %65 = load ptr, ptr %64, align 8, !tbaa !28
  %66 = load i32, ptr %6, align 4, !tbaa !19
  %67 = zext i32 %66 to i64
  %68 = getelementptr inbounds nuw %union.Node, ptr %65, i64 %67
  %69 = load ptr, ptr %5, align 8, !tbaa !9
  %70 = getelementptr inbounds nuw %struct.Table, ptr %69, i32 0, i32 7
  %71 = load ptr, ptr %70, align 8, !tbaa !28
  %72 = getelementptr inbounds %union.Limbox, ptr %71, i64 -1
  store ptr %68, ptr %72, align 8, !tbaa !21
  call void @llvm.lifetime.end.p0(i64 8, ptr %10) #8
  call void @llvm.lifetime.end.p0(i64 8, ptr %9) #8
  br label %73

73:                                               ; preds = %50, %42
  %74 = load i32, ptr %8, align 4, !tbaa !19
  %75 = trunc i32 %74 to i8
  %76 = load ptr, ptr %5, align 8, !tbaa !9
  %77 = getelementptr inbounds nuw %struct.Table, ptr %76, i32 0, i32 4
  store i8 %75, ptr %77, align 1, !tbaa !27
  %78 = load ptr, ptr %5, align 8, !tbaa !9
  %79 = getelementptr inbounds nuw %struct.Table, ptr %78, i32 0, i32 3
  %80 = load i8, ptr %79, align 2, !tbaa !30
  %81 = zext i8 %80 to i32
  %82 = and i32 %81, 191
  %83 = trunc i32 %82 to i8
  store i8 %83, ptr %79, align 2, !tbaa !30
  store i32 0, ptr %7, align 4, !tbaa !19
  br label %84

84:                                               ; preds = %101, %73
  %85 = load i32, ptr %7, align 4, !tbaa !19
  %86 = load i32, ptr %6, align 4, !tbaa !19
  %87 = icmp slt i32 %85, %86
  br i1 %87, label %88, label %104

88:                                               ; preds = %84
  call void @llvm.lifetime.start.p0(i64 8, ptr %11) #8
  %89 = load ptr, ptr %5, align 8, !tbaa !9
  %90 = getelementptr inbounds nuw %struct.Table, ptr %89, i32 0, i32 7
  %91 = load ptr, ptr %90, align 8, !tbaa !28
  %92 = load i32, ptr %7, align 4, !tbaa !19
  %93 = sext i32 %92 to i64
  %94 = getelementptr inbounds %union.Node, ptr %91, i64 %93
  store ptr %94, ptr %11, align 8, !tbaa !29
  %95 = load ptr, ptr %11, align 8, !tbaa !29
  %96 = getelementptr inbounds nuw %struct.NodeKey, ptr %95, i32 0, i32 3
  store i32 0, ptr %96, align 4, !tbaa !21
  %97 = load ptr, ptr %11, align 8, !tbaa !29
  %98 = getelementptr inbounds nuw %struct.NodeKey, ptr %97, i32 0, i32 2
  store i8 0, ptr %98, align 1, !tbaa !21
  %99 = load ptr, ptr %11, align 8, !tbaa !29
  %100 = getelementptr inbounds nuw %struct.TValue, ptr %99, i32 0, i32 1
  store i8 16, ptr %100, align 8, !tbaa !21
  call void @llvm.lifetime.end.p0(i64 8, ptr %11) #8
  br label %101

101:                                              ; preds = %88
  %102 = load i32, ptr %7, align 4, !tbaa !19
  %103 = add nsw i32 %102, 1
  store i32 %103, ptr %7, align 4, !tbaa !19
  br label %84

104:                                              ; preds = %84
  call void @llvm.lifetime.end.p0(i64 4, ptr %8) #8
  call void @llvm.lifetime.end.p0(i64 4, ptr %7) #8
  br label %105

105:                                              ; preds = %104, %14
  ret void
}

; Function Attrs: nounwind uwtable
define hidden ptr @luaH_new(ptr noundef %0) #0 {
  %2 = alloca ptr, align 8
  %3 = alloca ptr, align 8
  %4 = alloca ptr, align 8
  store ptr %0, ptr %2, align 8, !tbaa !4
  call void @llvm.lifetime.start.p0(i64 8, ptr %3) #8
  %5 = load ptr, ptr %2, align 8, !tbaa !4
  %6 = call ptr @luaC_newobj(ptr noundef %5, i8 noundef zeroext 5, i64 noundef 48)
  store ptr %6, ptr %3, align 8, !tbaa !36
  call void @llvm.lifetime.start.p0(i64 8, ptr %4) #8
  %7 = load ptr, ptr %3, align 8, !tbaa !36
  store ptr %7, ptr %4, align 8, !tbaa !9
  %8 = load ptr, ptr %4, align 8, !tbaa !9
  %9 = getelementptr inbounds nuw %struct.Table, ptr %8, i32 0, i32 8
  store ptr null, ptr %9, align 8, !tbaa !37
  %10 = load ptr, ptr %4, align 8, !tbaa !9
  %11 = getelementptr inbounds nuw %struct.Table, ptr %10, i32 0, i32 3
  store i8 63, ptr %11, align 2, !tbaa !30
  %12 = load ptr, ptr %4, align 8, !tbaa !9
  %13 = getelementptr inbounds nuw %struct.Table, ptr %12, i32 0, i32 6
  store ptr null, ptr %13, align 8, !tbaa !20
  %14 = load ptr, ptr %4, align 8, !tbaa !9
  %15 = getelementptr inbounds nuw %struct.Table, ptr %14, i32 0, i32 5
  store i32 0, ptr %15, align 4, !tbaa !13
  %16 = load ptr, ptr %2, align 8, !tbaa !4
  %17 = load ptr, ptr %4, align 8, !tbaa !9
  call void @setnodevector(ptr noundef %16, ptr noundef %17, i32 noundef 0)
  %18 = load ptr, ptr %4, align 8, !tbaa !9
  call void @llvm.lifetime.end.p0(i64 8, ptr %4) #8
  call void @llvm.lifetime.end.p0(i64 8, ptr %3) #8
  ret ptr %18
}