; Function Attrs: nounwind uwtable
define hidden ptr @luaH_new(ptr noundef %0) local_unnamed_addr #0 {
  %2 = tail call ptr @luaC_newobj(ptr noundef %0, i8 noundef zeroext 5, i64 noundef 48) #13
  %3 = getelementptr inbounds nuw i8, ptr %2, i64 32
  store ptr null, ptr %3, align 8, !tbaa !24
  %4 = getelementptr inbounds nuw i8, ptr %2, i64 10
  %5 = getelementptr inbounds nuw i8, ptr %2, i64 16
  store ptr null, ptr %5, align 8, !tbaa !19
  %6 = getelementptr inbounds nuw i8, ptr %2, i64 12
  store i32 0, ptr %6, align 4, !tbaa !4
  %7 = getelementptr inbounds nuw i8, ptr %2, i64 24
  store ptr @dummynode_, ptr %7, align 8, !tbaa !18
  %8 = getelementptr inbounds nuw i8, ptr %2, i64 11
  store i8 0, ptr %8, align 1, !tbaa !20
  store i8 127, ptr %4, align 2, !tbaa !21
  ret ptr %2
}